target datalayout = "e-m:e-p270:32:32-p271:32:32-p272:64:64-i64:64-i128:128-f80:128-n8:16:32:64-S128"
target triple = "x86_64-pc-linux-gnu"

%struct.H5VL_loc_params_t = type { i32, i32, %union.anon }
%union.anon = type { %struct.H5VL_loc_by_idx }
%struct.H5VL_loc_by_idx = type { ptr, i32, i32, i64, i64 }
%struct.H5VL_loc_by_name = type { ptr, i64 }

@H5_libinit_g = external global i8, align 1
@H5_libterm_g = external global i8, align 1
@.str = private unnamed_addr constant [103 x i8] c"generated/home/dtcxzyw/WorkSpace/Projects/compilers/llvm-opt-benchmark/bench/hdf5/hdf5/src/H5Gdeprec.c\00", align 1
@H5E_FUNC_g = external global i64, align 8
@H5E_CANTINIT_g = external global i64, align 8
@.str.1 = private unnamed_addr constant [30 x i8] c"library initialization failed\00", align 1
@H5E_CANTSET_g = external global i64, align 8
@.str.2 = private unnamed_addr constant [22 x i8] c"can't set API context\00", align 1
@H5E_ARGS_g = external global i64, align 8
@H5E_BADTYPE_g = external global i64, align 8
@H5E_SYM_g = external global i64, align 8
@.str.10 = private unnamed_addr constant [40 x i8] c"can't set collective metadata read info\00", align 1
@.str.11 = private unnamed_addr constant [28 x i8] c"invalid location identifier\00", align 1
@H5P_LST_LINK_CREATE_ID_g = external global i64, align 8
@H5P_LST_DATASET_XFER_ID_g = external global i64, align 8
@H5P_LST_LINK_ACCESS_ID_g = external global i64, align 8
@H5E_CANTMOVE_g = external global i64, align 8
@__func__.H5Gmove2 = private unnamed_addr constant [9 x i8] c"H5Gmove2\00", align 1
@.str.24 = private unnamed_addr constant [20 x i8] c"unable to move link\00", align 1

; Function Attrs: nounwind uwtable
define i32 @H5Gmove2(i64 noundef %0, ptr noundef %1, i64 noundef %2, ptr noundef %3) #0 {
  %5 = alloca i64, align 8
  %6 = alloca ptr, align 8
  %7 = alloca i64, align 8
  %8 = alloca ptr, align 8
  %9 = alloca ptr, align 8
  %10 = alloca %struct.H5VL_loc_params_t, align 8
  %11 = alloca ptr, align 8
  %12 = alloca %struct.H5VL_loc_params_t, align 8
  %13 = alloca i32, align 4
  %14 = alloca i8, align 1
  %15 = alloca i8, align 1
  store i64 %0, ptr %5, align 8
  store ptr %1, ptr %6, align 8
  store i64 %2, ptr %7, align 8
  store ptr %3, ptr %8, align 8
  store ptr null, ptr %9, align 8
  store ptr null, ptr %11, align 8
  store i32 0, ptr %13, align 4
  store i8 0, ptr %14, align 1
  store i8 0, ptr %15, align 1
  %16 = load i8, ptr @H5_libinit_g, align 1
  %17 = trunc i8 %16 to i1
  br i1 %17, label %22, label %18

18:                                               ; preds = %4
  %19 = load i8, ptr @H5_libterm_g, align 1
  %20 = trunc i8 %19 to i1
  %21 = xor i1 %20, true
  br label %22

22:                                               ; preds = %18, %4
  %23 = phi i1 [ false, %4 ], [ %21, %18 ]
  %24 = xor i1 %23, true
  %25 = xor i1 %24, true
  %26 = zext i1 %25 to i32
  %27 = sext i32 %26 to i64
  %28 = icmp ne i64 %27, 0
  br i1 %28, label %29, label %53

29:                                               ; preds = %22
  %30 = call i32 @H5_init_library()
  %31 = icmp slt i32 %30, 0
  %32 = xor i1 %31, true
  %33 = xor i1 %32, true
  %34 = zext i1 %33 to i32
  %35 = sext i32 %34 to i64
  %36 = icmp ne i64 %35, 0
  br i1 %36, label %37, label %52

37:                                               ; preds = %29
  br label %38

38:                                               ; preds = %37
  br label %39

39:                                               ; preds = %38
  br label %40

40:                                               ; preds = %39
  %41 = load i64, ptr @H5E_FUNC_g, align 8
  %42 = load i64, ptr @H5E_CANTINIT_g, align 8
  %43 = call i32 (ptr, ptr, i32, i64, i64, ptr, ...) @H5E_printf_stack(ptr noundef @.str, ptr noundef @__func__.H5Gmove2, i32 noundef 524, i64 noundef %41, i64 noundef %42, ptr noundef @.str.1)
  br label %44

44:                                               ; preds = %40
  store i8 1, ptr %15, align 1
  %45 = load i8, ptr %15, align 1
  %46 = trunc i8 %45 to i1
  %47 = zext i1 %46 to i8
  store i8 %47, ptr %15, align 1
  br label %48

48:                                               ; preds = %44
  br label %49

49:                                               ; preds = %48
  store i32 -1, ptr %13, align 4
  br label %187

50:                                               ; No predecessors!
  br label %51

51:                                               ; preds = %50
  br label %52

52:                                               ; preds = %51, %29
  br label %53

53:                                               ; preds = %52, %22
  %54 = call i32 @H5CX_push()
  %55 = icmp slt i32 %54, 0
  %56 = xor i1 %55, true
  %57 = xor i1 %56, true
  %58 = zext i1 %57 to i32
  %59 = sext i32 %58 to i64
  %60 = icmp ne i64 %59, 0
  br i1 %60, label %61, label %76

61:                                               ; preds = %53
  br label %62

62:                                               ; preds = %61
  br label %63

63:                                               ; preds = %62
  br label %64

64:                                               ; preds = %63
  %65 = load i64, ptr @H5E_FUNC_g, align 8
  %66 = load i64, ptr @H5E_CANTSET_g, align 8
  %67 = call i32 (ptr, ptr, i32, i64, i64, ptr, ...) @H5E_printf_stack(ptr noundef @.str, ptr noundef @__func__.H5Gmove2, i32 noundef 524, i64 noundef %65, i64 noundef %66, ptr noundef @.str.2)
  br label %68

68:                                               ; preds = %64
  store i8 1, ptr %15, align 1
  %69 = load i8, ptr %15, align 1
  %70 = trunc i8 %69 to i1
  %71 = zext i1 %70 to i8
  store i8 %71, ptr %15, align 1
  br label %72

72:                                               ; preds = %68
  br label %73

73:                                               ; preds = %72
  store i32 -1, ptr %13, align 4
  br label %187

74:                                               ; No predecessors!
  br label %75

75:                                               ; preds = %74
  br label %77

76:                                               ; preds = %53
  store i8 1, ptr %14, align 1
  br label %77

77:                                               ; preds = %76, %75
  %78 = call i32 @H5E_clear_stack()
  %79 = load i64, ptr %7, align 8
  %80 = call i32 @H5CX_set_loc(i64 noundef %79)
  %81 = icmp slt i32 %80, 0
  br i1 %81, label %82, label %97

82:                                               ; preds = %77
  br label %83

83:                                               ; preds = %82
  br label %84

84:                                               ; preds = %83
  br label %85

85:                                               ; preds = %84
  %86 = load i64, ptr @H5E_SYM_g, align 8
  %87 = load i64, ptr @H5E_CANTSET_g, align 8
  %88 = call i32 (ptr, ptr, i32, i64, i64, ptr, ...) @H5E_printf_stack(ptr noundef @.str, ptr noundef @__func__.H5Gmove2, i32 noundef 528, i64 noundef %86, i64 noundef %87, ptr noundef @.str.10)
  br label %89

89:                                               ; preds = %85
  store i8 1, ptr %15, align 1
  %90 = load i8, ptr %15, align 1
  %91 = trunc i8 %90 to i1
  %92 = zext i1 %91 to i8
  store i8 %92, ptr %15, align 1
  br label %93

93:                                               ; preds = %89
  br label %94

94:                                               ; preds = %93
  store i32 -1, ptr %13, align 4
  br label %187

95:                                               ; No predecessors!
  br label %96

96:                                               ; preds = %95
  br label %97

97:                                               ; preds = %96, %77
  %98 = getelementptr inbounds %struct.H5VL_loc_params_t, ptr %10, i32 0, i32 1
  store i32 1, ptr %98, align 4
  %99 = load ptr, ptr %6, align 8
  %100 = getelementptr inbounds %struct.H5VL_loc_params_t, ptr %10, i32 0, i32 2
  %101 = getelementptr inbounds %struct.H5VL_loc_by_name, ptr %100, i32 0, i32 0
  store ptr %99, ptr %101, align 8
  %102 = load i64, ptr @H5P_LST_LINK_ACCESS_ID_g, align 8
  %103 = getelementptr inbounds %struct.H5VL_loc_params_t, ptr %10, i32 0, i32 2
  %104 = getelementptr inbounds %struct.H5VL_loc_by_name, ptr %103, i32 0, i32 1
  store i64 %102, ptr %104, align 8
  %105 = load i64, ptr %5, align 8
  %106 = call i32 @H5I_get_type(i64 noundef %105)
  %107 = getelementptr inbounds %struct.H5VL_loc_params_t, ptr %10, i32 0, i32 0
  store i32 %106, ptr %107, align 8
  %108 = getelementptr inbounds %struct.H5VL_loc_params_t, ptr %12, i32 0, i32 1
  store i32 1, ptr %108, align 4
  %109 = load ptr, ptr %8, align 8
  %110 = getelementptr inbounds %struct.H5VL_loc_params_t, ptr %12, i32 0, i32 2
  %111 = getelementptr inbounds %struct.H5VL_loc_by_name, ptr %110, i32 0, i32 0
  store ptr %109, ptr %111, align 8
  %112 = load i64, ptr @H5P_LST_LINK_ACCESS_ID_g, align 8
  %113 = getelementptr inbounds %struct.H5VL_loc_params_t, ptr %12, i32 0, i32 2
  %114 = getelementptr inbounds %struct.H5VL_loc_by_name, ptr %113, i32 0, i32 1
  store i64 %112, ptr %114, align 8
  %115 = load i64, ptr %7, align 8
  %116 = call i32 @H5I_get_type(i64 noundef %115)
  %117 = getelementptr inbounds %struct.H5VL_loc_params_t, ptr %12, i32 0, i32 0
  store i32 %116, ptr %117, align 8
  %118 = load i64, ptr %5, align 8
  %119 = icmp ne i64 0, %118
  br i1 %119, label %120, label %140

120:                                              ; preds = %97
  %121 = load i64, ptr %5, align 8
  %122 = call ptr @H5I_object(i64 noundef %121)
  store ptr %122, ptr %9, align 8
  %123 = icmp eq ptr null, %122
  br i1 %123, label %124, label %139

124:                                              ; preds = %120
  br label %125

125:                                              ; preds = %124
  br label %126

126:                                              ; preds = %125
  br label %127

127:                                              ; preds = %126
  %128 = load i64, ptr @H5E_ARGS_g, align 8
  %129 = load i64, ptr @H5E_BADTYPE_g, align 8
  %130 = call i32 (ptr, ptr, i32, i64, i64, ptr, ...) @H5E_printf_stack(ptr noundef @.str, ptr noundef @__func__.H5Gmove2, i32 noundef 545, i64 noundef %128, i64 noundef %129, ptr noundef @.str.11)
  br label %131

131:                                              ; preds = %127
  store i8 1, ptr %15, align 1
  %132 = load i8, ptr %15, align 1
  %133 = trunc i8 %132 to i1
  %134 = zext i1 %133 to i8
  store i8 %134, ptr %15, align 1
  br label %135

135:                                              ; preds = %131
  br label %136

136:                                              ; preds = %135
  store i32 -1, ptr %13, align 4
  br label %187

137:                                              ; No predecessors!
  br label %138

138:                                              ; preds = %137
  br label %139

139:                                              ; preds = %138, %120
  br label %140

140:                                              ; preds = %139, %97
  %141 = load i64, ptr %7, align 8
  %142 = icmp ne i64 0, %141
  br i1 %142, label %143, label %163

143:                                              ; preds = %140
  %144 = load i64, ptr %7, align 8
  %145 = call ptr @H5I_object(i64 noundef %144)
  store ptr %145, ptr %11, align 8
  %146 = icmp eq ptr null, %145
  br i1 %146, label %147, label %162

147:                                              ; preds = %143
  br label %148

148:                                              ; preds = %147
  br label %149

149:                                              ; preds = %148
  br label %150

150:                                              ; preds = %149
  %151 = load i64, ptr @H5E_ARGS_g, align 8
  %152 = load i64, ptr @H5E_BADTYPE_g, align 8
  %153 = call i32 (ptr, ptr, i32, i64, i64, ptr, ...) @H5E_printf_stack(ptr noundef @.str, ptr noundef @__func__.H5Gmove2, i32 noundef 549, i64 noundef %151, i64 noundef %152, ptr noundef @.str.11)
  br label %154

154:                                              ; preds = %150
  store i8 1, ptr %15, align 1
  %155 = load i8, ptr %15, align 1
  %156 = trunc i8 %155 to i1
  %157 = zext i1 %156 to i8
  store i8 %157, ptr %15, align 1
  br label %158

158:                                              ; preds = %154
  br label %159

159:                                              ; preds = %158
  store i32 -1, ptr %13, align 4
  br label %187

160:                                              ; No predecessors!
  br label %161

161:                                              ; preds = %160
  br label %162

162:                                              ; preds = %161, %143
  br label %163

163:                                              ; preds = %162, %140
  %164 = load ptr, ptr %9, align 8
  %165 = load ptr, ptr %11, align 8
  %166 = load i64, ptr @H5P_LST_LINK_CREATE_ID_g, align 8
  %167 = load i64, ptr @H5P_LST_LINK_ACCESS_ID_g, align 8
  %168 = load i64, ptr @H5P_LST_DATASET_XFER_ID_g, align 8
  %169 = call i32 @H5VL_link_move(ptr noundef %164, ptr noundef %10, ptr noundef %165, ptr noundef %12, i64 noundef %166, i64 noundef %167, i64 noundef %168, ptr noundef null)
  %170 = icmp slt i32 %169, 0
  br i1 %170, label %171, label %186

171:                                              ; preds = %163
  br label %172

172:                                              ; preds = %171
  br label %173

173:                                              ; preds = %172
  br label %174

174:                                              ; preds = %173
  %175 = load i64, ptr @H5E_SYM_g, align 8
  %176 = load i64, ptr @H5E_CANTMOVE_g, align 8
  %177 = call i32 (ptr, ptr, i32, i64, i64, ptr, ...) @H5E_printf_stack(ptr noundef @.str, ptr noundef @__func__.H5Gmove2, i32 noundef 554, i64 noundef %175, i64 noundef %176, ptr noundef @.str.24)
  br label %178

178:                                              ; preds = %174
  store i8 1, ptr %15, align 1
  %179 = load i8, ptr %15, align 1
  %180 = trunc i8 %179 to i1
  %181 = zext i1 %180 to i8
  store i8 %181, ptr %15, align 1
  br label %182

182:                                              ; preds = %178
  br label %183

183:                                              ; preds = %182
  store i32 -1, ptr %13, align 4
  br label %187

184:                                              ; No predecessors!
  br label %185

185:                                              ; preds = %184
  br label %186

186:                                              ; preds = %185, %163
  br label %187

187:                                              ; preds = %186, %183, %159, %136, %94, %73, %49
  %188 = load i8, ptr %14, align 1
  %189 = trunc i8 %188 to i1
  %190 = xor i1 %189, true
  %191 = xor i1 %190, true
  %192 = zext i1 %191 to i32
  %193 = sext i32 %192 to i64
  %194 = icmp ne i64 %193, 0
  br i1 %194, label %195, label %197

195:                                              ; preds = %187
  %196 = call i32 @H5CX_pop(i1 noundef zeroext true)
  store i8 0, ptr %14, align 1
  br label %197

197:                                              ; preds = %195, %187
  %198 = load i8, ptr %15, align 1
  %199 = trunc i8 %198 to i1
  %200 = xor i1 %199, true
  %201 = xor i1 %200, true
  %202 = zext i1 %201 to i32
  %203 = sext i32 %202 to i64
  %204 = icmp ne i64 %203, 0
  br i1 %204, label %205, label %207

205:                                              ; preds = %197
  %206 = call i32 @H5E_dump_api_stack()
  br label %207

207:                                              ; preds = %205, %197
  %208 = load i32, ptr %13, align 4
  ret i32 %208
}