; Function Attrs: nounwind uwtable
define range(i32 -1, 1) i32 @H5Gmove2(i64 noundef %0, ptr noundef %1, i64 noundef %2, ptr noundef %3) local_unnamed_addr #1 {
  %5 = alloca %struct.H5VL_loc_params_t, align 8
  %6 = alloca %struct.H5VL_loc_params_t, align 8
  %7 = load i8, ptr @H5_libinit_g, align 1
  %8 = trunc i8 %7 to i1
  %9 = load i8, ptr @H5_libterm_g, align 1
  %10 = trunc i8 %9 to i1
  %11 = select i1 %8, i1 true, i1 %10
  br i1 %11, label %19, label %12

12:                                               ; preds = %4
  %13 = tail call i32 @H5_init_library() #4
  %14 = icmp slt i32 %13, 0
  br i1 %14, label %15, label %19

15:                                               ; preds = %12
  %16 = load i64, ptr @H5E_FUNC_g, align 8
  %17 = load i64, ptr @H5E_CANTINIT_g, align 8
  %18 = tail call i32 (ptr, ptr, i32, i64, i64, ptr, ...) @H5E_printf_stack(ptr noundef nonnull @.str, ptr noundef nonnull @__func__.H5Gmove2, i32 noundef 524, i64 noundef %16, i64 noundef %17, ptr noundef nonnull @.str.1) #4
  br label %.thread36

19:                                               ; preds = %12, %4
  %20 = tail call i32 @H5CX_push() #4
  %21 = icmp slt i32 %20, 0
  br i1 %21, label %22, label %26

22:                                               ; preds = %19
  %23 = load i64, ptr @H5E_FUNC_g, align 8
  %24 = load i64, ptr @H5E_CANTSET_g, align 8
  %25 = tail call i32 (ptr, ptr, i32, i64, i64, ptr, ...) @H5E_printf_stack(ptr noundef nonnull @.str, ptr noundef nonnull @__func__.H5Gmove2, i32 noundef 524, i64 noundef %23, i64 noundef %24, ptr noundef nonnull @.str.2) #4
  br label %.thread36

26:                                               ; preds = %19
  %27 = tail call i32 @H5E_clear_stack() #4
  %28 = tail call i32 @H5CX_set_loc(i64 noundef %2) #4
  %29 = icmp slt i32 %28, 0
  br i1 %29, label %30, label %34

30:                                               ; preds = %26
  %31 = load i64, ptr @H5E_SYM_g, align 8
  %32 = load i64, ptr @H5E_CANTSET_g, align 8
  %33 = tail call i32 (ptr, ptr, i32, i64, i64, ptr, ...) @H5E_printf_stack(ptr noundef nonnull @.str, ptr noundef nonnull @__func__.H5Gmove2, i32 noundef 528, i64 noundef %31, i64 noundef %32, ptr noundef nonnull @.str.10) #4
  br label %.thread42

34:                                               ; preds = %26
  %35 = getelementptr inbounds i8, ptr %5, i64 4
  store i32 1, ptr %35, align 4
  %36 = getelementptr inbounds i8, ptr %5, i64 8
  store ptr %1, ptr %36, align 8
  %37 = load i64, ptr @H5P_LST_LINK_ACCESS_ID_g, align 8
  %38 = getelementptr inbounds i8, ptr %5, i64 16
  store i64 %37, ptr %38, align 8
  %39 = tail call i32 @H5I_get_type(i64 noundef %0) #4
  store i32 %39, ptr %5, align 8
  %40 = getelementptr inbounds i8, ptr %6, i64 4
  store i32 1, ptr %40, align 4
  %41 = getelementptr inbounds i8, ptr %6, i64 8
  store ptr %3, ptr %41, align 8
  %42 = load i64, ptr @H5P_LST_LINK_ACCESS_ID_g, align 8
  %43 = getelementptr inbounds i8, ptr %6, i64 16
  store i64 %42, ptr %43, align 8
  %44 = tail call i32 @H5I_get_type(i64 noundef %2) #4
  store i32 %44, ptr %6, align 8
  %.not = icmp eq i64 %0, 0
  br i1 %.not, label %52, label %45

45:                                               ; preds = %34
  %46 = tail call ptr @H5I_object(i64 noundef %0) #4
  %47 = icmp eq ptr %46, null
  br i1 %47, label %48, label %52

48:                                               ; preds = %45
  %49 = load i64, ptr @H5E_ARGS_g, align 8
  %50 = load i64, ptr @H5E_BADTYPE_g, align 8
  %51 = tail call i32 (ptr, ptr, i32, i64, i64, ptr, ...) @H5E_printf_stack(ptr noundef nonnull @.str, ptr noundef nonnull @__func__.H5Gmove2, i32 noundef 545, i64 noundef %49, i64 noundef %50, ptr noundef nonnull @.str.11) #4
  br label %.thread42

52:                                               ; preds = %45, %34
  %.022 = phi ptr [ %46, %45 ], [ null, %34 ]
  %.not27 = icmp eq i64 %2, 0
  br i1 %.not27, label %60, label %53

53:                                               ; preds = %52
  %54 = tail call ptr @H5I_object(i64 noundef %2) #4
  %55 = icmp eq ptr %54, null
  br i1 %55, label %56, label %60

56:                                               ; preds = %53
  %57 = load i64, ptr @H5E_ARGS_g, align 8
  %58 = load i64, ptr @H5E_BADTYPE_g, align 8
  %59 = tail call i32 (ptr, ptr, i32, i64, i64, ptr, ...) @H5E_printf_stack(ptr noundef nonnull @.str, ptr noundef nonnull @__func__.H5Gmove2, i32 noundef 549, i64 noundef %57, i64 noundef %58, ptr noundef nonnull @.str.11) #4
  br label %.thread42

60:                                               ; preds = %53, %52
  %.021 = phi ptr [ %54, %53 ], [ null, %52 ]
  %61 = load i64, ptr @H5P_LST_LINK_CREATE_ID_g, align 8
  %62 = load i64, ptr @H5P_LST_LINK_ACCESS_ID_g, align 8
  %63 = load i64, ptr @H5P_LST_DATASET_XFER_ID_g, align 8
  %64 = call i32 @H5VL_link_move(ptr noundef %.022, ptr noundef nonnull %5, ptr noundef %.021, ptr noundef nonnull %6, i64 noundef %61, i64 noundef %62, i64 noundef %63, ptr noundef null) #4
  %65 = icmp slt i32 %64, 0
  br i1 %65, label %66, label %71

66:                                               ; preds = %60
  %67 = load i64, ptr @H5E_SYM_g, align 8
  %68 = load i64, ptr @H5E_CANTMOVE_g, align 8
  %69 = call i32 (ptr, ptr, i32, i64, i64, ptr, ...) @H5E_printf_stack(ptr noundef nonnull @.str, ptr noundef nonnull @__func__.H5Gmove2, i32 noundef 554, i64 noundef %67, i64 noundef %68, ptr noundef nonnull @.str.24) #4
  br label %.thread42

.thread42:                                        ; preds = %66, %56, %48, %30
  %70 = call i32 @H5CX_pop(i1 noundef zeroext true) #4
  br label %.thread36

71:                                               ; preds = %60
  %72 = call i32 @H5CX_pop(i1 noundef zeroext true) #4
  br label %74

.thread36:                                        ; preds = %22, %15, %.thread42
  %73 = call i32 @H5E_dump_api_stack() #4
  br label %74

74:                                               ; preds = %71, %.thread36
  %.0203139 = phi i32 [ -1, %.thread36 ], [ 0, %71 ]
  ret i32 %.0203139
}